target datalayout = "e-m:e-p270:32:32-p271:32:32-p272:64:64-i64:64-i128:128-f80:128-n8:16:32:64-S128"
target triple = "x86_64-pc-linux-gnu"

%struct.nameData = type { [64 x i8] }
%struct.ObjectAddress = type { i32, i32, i32 }
%struct.RelationData = type { %struct.RelFileLocator, ptr, i32, i32, i8, i8, i8, i8, i8, i32, i32, i32, i32, ptr, ptr, i32, %struct.LockInfoData, ptr, ptr, ptr, ptr, ptr, i8, ptr, ptr, ptr, ptr, ptr, ptr, i32, ptr, i8, ptr, ptr, i32, i8, i32, ptr, i8, ptr, ptr, ptr, ptr, ptr, ptr, ptr, i32, ptr, ptr, ptr, ptr, ptr, ptr, ptr, ptr, ptr, ptr, ptr, ptr, ptr, ptr, ptr, ptr, ptr, ptr, ptr, i32, i8, ptr }
%struct.RelFileLocator = type { i32, i32, i32 }
%struct.LockInfoData = type { %struct.LockRelId }
%struct.LockRelId = type { i32, i32 }
%struct.EventTriggerQueryState = type { ptr, %struct.slist_head, i8, i32, i32, i8, ptr, ptr, ptr }
%struct.slist_head = type { %struct.slist_node }
%struct.slist_node = type { ptr }
%struct.SQLDropObject = type { %struct.ObjectAddress, ptr, ptr, ptr, ptr, ptr, ptr, i8, i8, i8, %struct.slist_node }

@currentEventTriggerState = internal global ptr null, align 8
@.str.19 = private unnamed_addr constant [8 x i8] c"pg_temp\00", align 1
@CurrentMemoryContext = external global ptr, align 8

; Function Attrs: inlinehint nounwind uwtable
define internal ptr @DatumGetPointer(i64 noundef %0) #6 {
  %2 = alloca i64, align 8
  store i64 %0, ptr %2, align 8
  %3 = load i64, ptr %2, align 8
  %4 = inttoptr i64 %3 to ptr
  ret ptr %4
}

; Function Attrs: inlinehint nounwind uwtable
define internal void @slist_push_head(ptr noundef %0, ptr noundef %1) #6 {
  %3 = alloca ptr, align 8
  %4 = alloca ptr, align 8
  store ptr %0, ptr %3, align 8
  store ptr %1, ptr %4, align 8
  %5 = load ptr, ptr %3, align 8
  %6 = getelementptr inbounds nuw %struct.slist_head, ptr %5, i32 0, i32 0
  %7 = getelementptr inbounds nuw %struct.slist_node, ptr %6, i32 0, i32 0
  %8 = load ptr, ptr %7, align 8
  %9 = load ptr, ptr %4, align 8
  %10 = getelementptr inbounds nuw %struct.slist_node, ptr %9, i32 0, i32 0
  store ptr %8, ptr %10, align 8
  %11 = load ptr, ptr %4, align 8
  %12 = load ptr, ptr %3, align 8
  %13 = getelementptr inbounds nuw %struct.slist_head, ptr %12, i32 0, i32 0
  %14 = getelementptr inbounds nuw %struct.slist_node, ptr %13, i32 0, i32 0
  store ptr %11, ptr %14, align 8
  ret void
}

; Function Attrs: inlinehint nounwind uwtable
define internal ptr @DatumGetName(i64 noundef %0) #6 {
  %2 = alloca i64, align 8
  store i64 %0, ptr %2, align 8
  %3 = load i64, ptr %2, align 8
  %4 = call ptr @DatumGetPointer(i64 noundef %3)
  ret ptr %4
}

; Function Attrs: inlinehint nounwind uwtable
define internal i32 @DatumGetObjectId(i64 noundef %0) #6 {
  %2 = alloca i64, align 8
  store i64 %0, ptr %2, align 8
  %3 = load i64, ptr %2, align 8
  %4 = trunc i64 %3 to i32
  ret i32 %4
}

; Function Attrs: inlinehint nounwind uwtable
define internal ptr @MemoryContextSwitchTo(ptr noundef %0) #6 {
  %2 = alloca ptr, align 8
  %3 = alloca ptr, align 8
  store ptr %0, ptr %2, align 8
  call void @llvm.lifetime.start.p0(i64 8, ptr %3) #10
  %4 = load ptr, ptr @CurrentMemoryContext, align 8
  store ptr %4, ptr %3, align 8
  %5 = load ptr, ptr %2, align 8
  store ptr %5, ptr @CurrentMemoryContext, align 8
  %6 = load ptr, ptr %3, align 8
  call void @llvm.lifetime.end.p0(i64 8, ptr %3) #10
  ret ptr %6
}

; Function Attrs: nounwind uwtable
define dso_local void @EventTriggerSQLDropAddObject(ptr noundef %0, i1 noundef zeroext %1, i1 noundef zeroext %2) #0 {
  %4 = alloca ptr, align 8
  %5 = alloca i8, align 1
  %6 = alloca i8, align 1
  %7 = alloca ptr, align 8
  %8 = alloca ptr, align 8
  %9 = alloca i32, align 4
  %10 = alloca ptr, align 8
  %11 = alloca ptr, align 8
  %12 = alloca i16, align 2
  %13 = alloca i64, align 8
  %14 = alloca i8, align 1
  %15 = alloca i32, align 4
  store ptr %0, ptr %4, align 8
  %16 = zext i1 %1 to i8
  store i8 %16, ptr %5, align 1
  %17 = zext i1 %2 to i8
  store i8 %17, ptr %6, align 1
  call void @llvm.lifetime.start.p0(i64 8, ptr %7) #10
  call void @llvm.lifetime.start.p0(i64 8, ptr %8) #10
  %18 = load ptr, ptr @currentEventTriggerState, align 8
  %19 = icmp ne ptr %18, null
  br i1 %19, label %21, label %20

20:                                               ; preds = %3
  store i32 1, ptr %9, align 4
  br label %213

21:                                               ; preds = %3
  %22 = load ptr, ptr %4, align 8
  %23 = getelementptr inbounds nuw %struct.ObjectAddress, ptr %22, i32 0, i32 0
  %24 = load i32, ptr %23, align 4
  %25 = icmp eq i32 %24, 2615
  br i1 %25, label %26, label %37

26:                                               ; preds = %21
  %27 = load ptr, ptr %4, align 8
  %28 = getelementptr inbounds nuw %struct.ObjectAddress, ptr %27, i32 0, i32 1
  %29 = load i32, ptr %28, align 4
  %30 = call zeroext i1 @isAnyTempNamespace(i32 noundef %29)
  br i1 %30, label %31, label %37

31:                                               ; preds = %26
  %32 = load ptr, ptr %4, align 8
  %33 = getelementptr inbounds nuw %struct.ObjectAddress, ptr %32, i32 0, i32 1
  %34 = load i32, ptr %33, align 4
  %35 = call zeroext i1 @isTempNamespace(i32 noundef %34)
  br i1 %35, label %37, label %36

36:                                               ; preds = %31
  store i32 1, ptr %9, align 4
  br label %213

37:                                               ; preds = %31, %26, %21
  %38 = load ptr, ptr @currentEventTriggerState, align 8
  %39 = getelementptr inbounds nuw %struct.EventTriggerQueryState, ptr %38, i32 0, i32 0
  %40 = load ptr, ptr %39, align 8
  %41 = call ptr @MemoryContextSwitchTo(ptr noundef %40)
  store ptr %41, ptr %8, align 8
  %42 = call ptr @palloc0(i64 noundef 80)
  store ptr %42, ptr %7, align 8
  %43 = load ptr, ptr %7, align 8
  %44 = getelementptr inbounds nuw %struct.SQLDropObject, ptr %43, i32 0, i32 0
  %45 = load ptr, ptr %4, align 8
  call void @llvm.memcpy.p0.p0.i64(ptr align 8 %44, ptr align 4 %45, i64 12, i1 false)
  %46 = load i8, ptr %5, align 1, !range !8, !noundef !9
  %47 = trunc i8 %46 to i1
  %48 = load ptr, ptr %7, align 8
  %49 = getelementptr inbounds nuw %struct.SQLDropObject, ptr %48, i32 0, i32 7
  %50 = zext i1 %47 to i8
  store i8 %50, ptr %49, align 8
  %51 = load i8, ptr %6, align 1, !range !8, !noundef !9
  %52 = trunc i8 %51 to i1
  %53 = load ptr, ptr %7, align 8
  %54 = getelementptr inbounds nuw %struct.SQLDropObject, ptr %53, i32 0, i32 8
  %55 = zext i1 %52 to i8
  store i8 %55, ptr %54, align 1
  %56 = load ptr, ptr %4, align 8
  %57 = getelementptr inbounds nuw %struct.ObjectAddress, ptr %56, i32 0, i32 0
  %58 = load i32, ptr %57, align 4
  %59 = call zeroext i1 @is_objectclass_supported(i32 noundef %58)
  br i1 %59, label %60, label %178

60:                                               ; preds = %37
  call void @llvm.lifetime.start.p0(i64 8, ptr %10) #10
  call void @llvm.lifetime.start.p0(i64 8, ptr %11) #10
  %61 = load ptr, ptr %7, align 8
  %62 = getelementptr inbounds nuw %struct.SQLDropObject, ptr %61, i32 0, i32 0
  %63 = getelementptr inbounds nuw %struct.ObjectAddress, ptr %62, i32 0, i32 0
  %64 = load i32, ptr %63, align 8
  %65 = call ptr @table_open(i32 noundef %64, i32 noundef 1)
  store ptr %65, ptr %10, align 8
  %66 = load ptr, ptr %10, align 8
  %67 = load ptr, ptr %4, align 8
  %68 = getelementptr inbounds nuw %struct.ObjectAddress, ptr %67, i32 0, i32 0
  %69 = load i32, ptr %68, align 4
  %70 = call signext i16 @get_object_attnum_oid(i32 noundef %69)
  %71 = load ptr, ptr %7, align 8
  %72 = getelementptr inbounds nuw %struct.SQLDropObject, ptr %71, i32 0, i32 0
  %73 = getelementptr inbounds nuw %struct.ObjectAddress, ptr %72, i32 0, i32 1
  %74 = load i32, ptr %73, align 4
  %75 = call ptr @get_catalog_object_by_oid(ptr noundef %66, i16 noundef signext %70, i32 noundef %74)
  store ptr %75, ptr %11, align 8
  %76 = load ptr, ptr %11, align 8
  %77 = icmp ne ptr %76, null
  br i1 %77, label %78, label %173

78:                                               ; preds = %60
  call void @llvm.lifetime.start.p0(i64 2, ptr %12) #10
  call void @llvm.lifetime.start.p0(i64 8, ptr %13) #10
  call void @llvm.lifetime.start.p0(i64 1, ptr %14) #10
  %79 = load ptr, ptr %7, align 8
  %80 = getelementptr inbounds nuw %struct.SQLDropObject, ptr %79, i32 0, i32 0
  %81 = getelementptr inbounds nuw %struct.ObjectAddress, ptr %80, i32 0, i32 0
  %82 = load i32, ptr %81, align 8
  %83 = call signext i16 @get_object_attnum_namespace(i32 noundef %82)
  store i16 %83, ptr %12, align 2
  %84 = load i16, ptr %12, align 2
  %85 = sext i16 %84 to i32
  %86 = icmp ne i32 %85, 0
  br i1 %86, label %87, label %128

87:                                               ; preds = %78
  %88 = load ptr, ptr %11, align 8
  %89 = load i16, ptr %12, align 2
  %90 = sext i16 %89 to i32
  %91 = load ptr, ptr %10, align 8
  %92 = getelementptr inbounds nuw %struct.RelationData, ptr %91, i32 0, i32 14
  %93 = load ptr, ptr %92, align 8
  %94 = call i64 @heap_getattr(ptr noundef %88, i32 noundef %90, ptr noundef %93, ptr noundef %14)
  store i64 %94, ptr %13, align 8
  %95 = load i8, ptr %14, align 1, !range !8, !noundef !9
  %96 = trunc i8 %95 to i1
  br i1 %96, label %127, label %97

97:                                               ; preds = %87
  call void @llvm.lifetime.start.p0(i64 4, ptr %15) #10
  %98 = load i64, ptr %13, align 8
  %99 = call i32 @DatumGetObjectId(i64 noundef %98)
  store i32 %99, ptr %15, align 4
  %100 = load i32, ptr %15, align 4
  %101 = call zeroext i1 @isTempNamespace(i32 noundef %100)
  br i1 %101, label %102, label %107

102:                                              ; preds = %97
  %103 = load ptr, ptr %7, align 8
  %104 = getelementptr inbounds nuw %struct.SQLDropObject, ptr %103, i32 0, i32 1
  store ptr @.str.19, ptr %104, align 8
  %105 = load ptr, ptr %7, align 8
  %106 = getelementptr inbounds nuw %struct.SQLDropObject, ptr %105, i32 0, i32 9
  store i8 1, ptr %106, align 2
  br label %123

107:                                              ; preds = %97
  %108 = load i32, ptr %15, align 4
  %109 = call zeroext i1 @isAnyTempNamespace(i32 noundef %108)
  br i1 %109, label %110, label %115

110:                                              ; preds = %107
  %111 = load ptr, ptr %7, align 8
  call void @pfree(ptr noundef %111)
  %112 = load ptr, ptr %10, align 8
  call void @table_close(ptr noundef %112, i32 noundef 1)
  %113 = load ptr, ptr %8, align 8
  %114 = call ptr @MemoryContextSwitchTo(ptr noundef %113)
  store i32 1, ptr %9, align 4
  br label %124

115:                                              ; preds = %107
  %116 = load i32, ptr %15, align 4
  %117 = call ptr @get_namespace_name(i32 noundef %116)
  %118 = load ptr, ptr %7, align 8
  %119 = getelementptr inbounds nuw %struct.SQLDropObject, ptr %118, i32 0, i32 1
  store ptr %117, ptr %119, align 8
  %120 = load ptr, ptr %7, align 8
  %121 = getelementptr inbounds nuw %struct.SQLDropObject, ptr %120, i32 0, i32 9
  store i8 0, ptr %121, align 2
  br label %122

122:                                              ; preds = %115
  br label %123

123:                                              ; preds = %122, %102
  store i32 0, ptr %9, align 4
  br label %124

124:                                              ; preds = %123, %110
  call void @llvm.lifetime.end.p0(i64 4, ptr %15) #10
  %125 = load i32, ptr %9, align 4
  switch i32 %125, label %170 [
    i32 0, label %126
  ]

126:                                              ; preds = %124
  br label %127

127:                                              ; preds = %126, %87
  br label %128

128:                                              ; preds = %127, %78
  %129 = load ptr, ptr %7, align 8
  %130 = getelementptr inbounds nuw %struct.SQLDropObject, ptr %129, i32 0, i32 0
  %131 = getelementptr inbounds nuw %struct.ObjectAddress, ptr %130, i32 0, i32 0
  %132 = load i32, ptr %131, align 8
  %133 = call zeroext i1 @get_object_namensp_unique(i32 noundef %132)
  br i1 %133, label %134, label %169

134:                                              ; preds = %128
  %135 = load ptr, ptr %7, align 8
  %136 = getelementptr inbounds nuw %struct.SQLDropObject, ptr %135, i32 0, i32 0
  %137 = getelementptr inbounds nuw %struct.ObjectAddress, ptr %136, i32 0, i32 2
  %138 = load i32, ptr %137, align 8
  %139 = icmp eq i32 %138, 0
  br i1 %139, label %140, label %169

140:                                              ; preds = %134
  %141 = load ptr, ptr %7, align 8
  %142 = getelementptr inbounds nuw %struct.SQLDropObject, ptr %141, i32 0, i32 0
  %143 = getelementptr inbounds nuw %struct.ObjectAddress, ptr %142, i32 0, i32 0
  %144 = load i32, ptr %143, align 8
  %145 = call signext i16 @get_object_attnum_name(i32 noundef %144)
  store i16 %145, ptr %12, align 2
  %146 = load i16, ptr %12, align 2
  %147 = sext i16 %146 to i32
  %148 = icmp ne i32 %147, 0
  br i1 %148, label %149, label %168

149:                                              ; preds = %140
  %150 = load ptr, ptr %11, align 8
  %151 = load i16, ptr %12, align 2
  %152 = sext i16 %151 to i32
  %153 = load ptr, ptr %10, align 8
  %154 = getelementptr inbounds nuw %struct.RelationData, ptr %153, i32 0, i32 14
  %155 = load ptr, ptr %154, align 8
  %156 = call i64 @heap_getattr(ptr noundef %150, i32 noundef %152, ptr noundef %155, ptr noundef %14)
  store i64 %156, ptr %13, align 8
  %157 = load i8, ptr %14, align 1, !range !8, !noundef !9
  %158 = trunc i8 %157 to i1
  br i1 %158, label %167, label %159

159:                                              ; preds = %149
  %160 = load i64, ptr %13, align 8
  %161 = call ptr @DatumGetName(i64 noundef %160)
  %162 = getelementptr inbounds nuw %struct.nameData, ptr %161, i32 0, i32 0
  %163 = getelementptr inbounds [64 x i8], ptr %162, i64 0, i64 0
  %164 = call ptr @pstrdup(ptr noundef %163)
  %165 = load ptr, ptr %7, align 8
  %166 = getelementptr inbounds nuw %struct.SQLDropObject, ptr %165, i32 0, i32 2
  store ptr %164, ptr %166, align 8
  br label %167

167:                                              ; preds = %159, %149
  br label %168

168:                                              ; preds = %167, %140
  br label %169

169:                                              ; preds = %168, %134, %128
  store i32 0, ptr %9, align 4
  br label %170

170:                                              ; preds = %169, %124
  call void @llvm.lifetime.end.p0(i64 1, ptr %14) #10
  call void @llvm.lifetime.end.p0(i64 8, ptr %13) #10
  call void @llvm.lifetime.end.p0(i64 2, ptr %12) #10
  %171 = load i32, ptr %9, align 4
  switch i32 %171, label %175 [
    i32 0, label %172
  ]

172:                                              ; preds = %170
  br label %173

173:                                              ; preds = %172, %60
  %174 = load ptr, ptr %10, align 8
  call void @table_close(ptr noundef %174, i32 noundef 1)
  store i32 0, ptr %9, align 4
  br label %175

175:                                              ; preds = %173, %170
  call void @llvm.lifetime.end.p0(i64 8, ptr %11) #10
  call void @llvm.lifetime.end.p0(i64 8, ptr %10) #10
  %176 = load i32, ptr %9, align 4
  switch i32 %176, label %213 [
    i32 0, label %177
  ]

177:                                              ; preds = %175
  br label %192

178:                                              ; preds = %37
  %179 = load ptr, ptr %4, align 8
  %180 = getelementptr inbounds nuw %struct.ObjectAddress, ptr %179, i32 0, i32 0
  %181 = load i32, ptr %180, align 4
  %182 = icmp eq i32 %181, 2615
  br i1 %182, label %183, label %191

183:                                              ; preds = %178
  %184 = load ptr, ptr %4, align 8
  %185 = getelementptr inbounds nuw %struct.ObjectAddress, ptr %184, i32 0, i32 1
  %186 = load i32, ptr %185, align 4
  %187 = call zeroext i1 @isTempNamespace(i32 noundef %186)
  br i1 %187, label %188, label %191

188:                                              ; preds = %183
  %189 = load ptr, ptr %7, align 8
  %190 = getelementptr inbounds nuw %struct.SQLDropObject, ptr %189, i32 0, i32 9
  store i8 1, ptr %190, align 2
  br label %191

191:                                              ; preds = %188, %183, %178
  br label %192

192:                                              ; preds = %191, %177
  %193 = load ptr, ptr %7, align 8
  %194 = getelementptr inbounds nuw %struct.SQLDropObject, ptr %193, i32 0, i32 0
  %195 = load ptr, ptr %7, align 8
  %196 = getelementptr inbounds nuw %struct.SQLDropObject, ptr %195, i32 0, i32 5
  %197 = load ptr, ptr %7, align 8
  %198 = getelementptr inbounds nuw %struct.SQLDropObject, ptr %197, i32 0, i32 6
  %199 = call ptr @getObjectIdentityParts(ptr noundef %194, ptr noundef %196, ptr noundef %198, i1 noundef zeroext false)
  %200 = load ptr, ptr %7, align 8
  %201 = getelementptr inbounds nuw %struct.SQLDropObject, ptr %200, i32 0, i32 3
  store ptr %199, ptr %201, align 8
  %202 = load ptr, ptr %7, align 8
  %203 = getelementptr inbounds nuw %struct.SQLDropObject, ptr %202, i32 0, i32 0
  %204 = call ptr @getObjectTypeDescription(ptr noundef %203, i1 noundef zeroext false)
  %205 = load ptr, ptr %7, align 8
  %206 = getelementptr inbounds nuw %struct.SQLDropObject, ptr %205, i32 0, i32 4
  store ptr %204, ptr %206, align 8
  %207 = load ptr, ptr @currentEventTriggerState, align 8
  %208 = getelementptr inbounds nuw %struct.EventTriggerQueryState, ptr %207, i32 0, i32 1
  %209 = load ptr, ptr %7, align 8
  %210 = getelementptr inbounds nuw %struct.SQLDropObject, ptr %209, i32 0, i32 10
  call void @slist_push_head(ptr noundef %208, ptr noundef %210)
  %211 = load ptr, ptr %8, align 8
  %212 = call ptr @MemoryContextSwitchTo(ptr noundef %211)
  store i32 0, ptr %9, align 4
  br label %213

213:                                              ; preds = %192, %175, %36, %20
  call void @llvm.lifetime.end.p0(i64 8, ptr %8) #10
  call void @llvm.lifetime.end.p0(i64 8, ptr %7) #10
  %214 = load i32, ptr %9, align 4
  switch i32 %214, label %216 [
    i32 0, label %215
    i32 1, label %215
  ]

215:                                              ; preds = %213, %213
  ret void

216:                                              ; preds = %213
  unreachable
}