; Function Attrs: nounwind uwtable
define dso_local void @EventTriggerSQLDropAddObject(ptr noundef readonly captures(none) %0, i1 noundef zeroext %1, i1 noundef zeroext %2) local_unnamed_addr #0 {
  %4 = alloca i8, align 1
  %5 = zext i1 %1 to i8
  %6 = zext i1 %2 to i8
  %7 = load ptr, ptr @currentEventTriggerState, align 8
  %.not = icmp eq ptr %7, null
  br i1 %.not, label %96, label %8

8:                                                ; preds = %3
  %9 = load i32, ptr %0, align 4
  %10 = icmp eq i32 %9, 2615
  br i1 %10, label %11, label %18

11:                                               ; preds = %8
  %12 = getelementptr inbounds nuw i8, ptr %0, i64 4
  %13 = load i32, ptr %12, align 4
  %14 = tail call zeroext i1 @isAnyTempNamespace(i32 noundef %13) #16
  br i1 %14, label %15, label %18

15:                                               ; preds = %11
  %16 = load i32, ptr %12, align 4
  %17 = tail call zeroext i1 @isTempNamespace(i32 noundef %16) #16
  br i1 %17, label %18, label %96

18:                                               ; preds = %15, %11, %8
  %19 = load ptr, ptr @currentEventTriggerState, align 8
  %20 = load ptr, ptr %19, align 8
  %21 = load ptr, ptr @CurrentMemoryContext, align 8
  store ptr %20, ptr @CurrentMemoryContext, align 8
  %22 = tail call ptr @palloc0(i64 noundef 80) #16
  tail call void @llvm.memcpy.p0.p0.i64(ptr noundef nonnull align 8 dereferenceable(12) %22, ptr noundef nonnull align 4 dereferenceable(12) %0, i64 12, i1 false)
  %23 = getelementptr inbounds nuw i8, ptr %22, i64 64
  store i8 %5, ptr %23, align 8
  %24 = getelementptr inbounds nuw i8, ptr %22, i64 65
  store i8 %6, ptr %24, align 1
  %25 = load i32, ptr %0, align 4
  %26 = tail call zeroext i1 @is_objectclass_supported(i32 noundef %25) #16
  br i1 %26, label %27, label %76

27:                                               ; preds = %18
  %28 = load i32, ptr %22, align 8
  %29 = tail call ptr @table_open(i32 noundef %28, i32 noundef 1) #16
  %30 = load i32, ptr %0, align 4
  %31 = tail call signext i16 @get_object_attnum_oid(i32 noundef %30) #16
  %32 = getelementptr inbounds nuw i8, ptr %22, i64 4
  %33 = load i32, ptr %32, align 4
  %34 = tail call ptr @get_catalog_object_by_oid(ptr noundef %29, i16 noundef signext %31, i32 noundef %33) #16
  %.not59 = icmp eq ptr %34, null
  br i1 %.not59, label %.critedge65, label %35

35:                                               ; preds = %27
  call void @llvm.lifetime.start.p0(i64 1, ptr nonnull %4) #16
  %36 = load i32, ptr %22, align 8
  %37 = tail call signext i16 @get_object_attnum_namespace(i32 noundef %36) #16
  %.not60 = icmp eq i16 %37, 0
  br i1 %.not60, label %54, label %38

38:                                               ; preds = %35
  %39 = sext i16 %37 to i32
  %40 = getelementptr inbounds nuw i8, ptr %29, i64 64
  %41 = load ptr, ptr %40, align 8
  %42 = call fastcc i64 @heap_getattr(ptr noundef %34, i32 noundef %39, ptr noundef %41, ptr noundef %4)
  %43 = load i8, ptr %4, align 1, !range !9, !noundef !10
  %44 = trunc nuw i8 %43 to i1
  br i1 %44, label %54, label %45

45:                                               ; preds = %38
  %46 = trunc i64 %42 to i32
  %47 = call zeroext i1 @isTempNamespace(i32 noundef %46) #16
  br i1 %47, label %.sink.split, label %48

48:                                               ; preds = %45
  %49 = call zeroext i1 @isAnyTempNamespace(i32 noundef %46) #16
  br i1 %49, label %.critedge, label %50

.critedge:                                        ; preds = %48
  call void @pfree(ptr noundef nonnull %22) #16
  call void @table_close(ptr noundef nonnull %29, i32 noundef 1) #16
  store ptr %21, ptr @CurrentMemoryContext, align 8
  call void @llvm.lifetime.end.p0(i64 1, ptr nonnull %4) #16
  br label %96

50:                                               ; preds = %48
  %51 = call ptr @get_namespace_name(i32 noundef %46) #16
  br label %.sink.split

.sink.split:                                      ; preds = %45, %50
  %.sink67 = phi ptr [ %51, %50 ], [ @.str.19, %45 ]
  %.sink = phi i8 [ 0, %50 ], [ 1, %45 ]
  %52 = getelementptr inbounds nuw i8, ptr %22, i64 16
  store ptr %.sink67, ptr %52, align 8
  %53 = getelementptr inbounds nuw i8, ptr %22, i64 66
  store i8 %.sink, ptr %53, align 2
  br label %54

54:                                               ; preds = %.sink.split, %38, %35
  %55 = load i32, ptr %22, align 8
  %56 = call zeroext i1 @get_object_namensp_unique(i32 noundef %55) #16
  br i1 %56, label %57, label %75

57:                                               ; preds = %54
  %58 = getelementptr inbounds nuw i8, ptr %22, i64 8
  %59 = load i32, ptr %58, align 8
  %60 = icmp eq i32 %59, 0
  br i1 %60, label %61, label %75

61:                                               ; preds = %57
  %62 = load i32, ptr %22, align 8
  %63 = call signext i16 @get_object_attnum_name(i32 noundef %62) #16
  %.not61 = icmp eq i16 %63, 0
  br i1 %.not61, label %75, label %64

64:                                               ; preds = %61
  %65 = sext i16 %63 to i32
  %66 = getelementptr inbounds nuw i8, ptr %29, i64 64
  %67 = load ptr, ptr %66, align 8
  %68 = call fastcc i64 @heap_getattr(ptr noundef %34, i32 noundef %65, ptr noundef %67, ptr noundef %4)
  %69 = load i8, ptr %4, align 1, !range !9, !noundef !10
  %70 = trunc nuw i8 %69 to i1
  br i1 %70, label %75, label %71

71:                                               ; preds = %64
  %72 = inttoptr i64 %68 to ptr
  %73 = call ptr @pstrdup(ptr noundef %72) #16
  %74 = getelementptr inbounds nuw i8, ptr %22, i64 24
  store ptr %73, ptr %74, align 8
  br label %75

75:                                               ; preds = %54, %57, %64, %71, %61
  call void @llvm.lifetime.end.p0(i64 1, ptr nonnull %4) #16
  br label %.critedge65

.critedge65:                                      ; preds = %75, %27
  call void @table_close(ptr noundef %29, i32 noundef 1) #16
  br label %85

76:                                               ; preds = %18
  %77 = load i32, ptr %0, align 4
  %78 = icmp eq i32 %77, 2615
  br i1 %78, label %79, label %85

79:                                               ; preds = %76
  %80 = getelementptr inbounds nuw i8, ptr %0, i64 4
  %81 = load i32, ptr %80, align 4
  %82 = tail call zeroext i1 @isTempNamespace(i32 noundef %81) #16
  br i1 %82, label %83, label %85

83:                                               ; preds = %79
  %84 = getelementptr inbounds nuw i8, ptr %22, i64 66
  store i8 1, ptr %84, align 2
  br label %85

85:                                               ; preds = %.critedge65, %76, %79, %83
  %86 = getelementptr inbounds nuw i8, ptr %22, i64 48
  %87 = getelementptr inbounds nuw i8, ptr %22, i64 56
  %88 = call ptr @getObjectIdentityParts(ptr noundef nonnull %22, ptr noundef nonnull %86, ptr noundef nonnull %87, i1 noundef zeroext false) #16
  %89 = getelementptr inbounds nuw i8, ptr %22, i64 32
  store ptr %88, ptr %89, align 8
  %90 = call ptr @getObjectTypeDescription(ptr noundef nonnull %22, i1 noundef zeroext false) #16
  %91 = getelementptr inbounds nuw i8, ptr %22, i64 40
  store ptr %90, ptr %91, align 8
  %92 = load ptr, ptr @currentEventTriggerState, align 8
  %93 = getelementptr inbounds nuw i8, ptr %92, i64 8
  %94 = getelementptr inbounds nuw i8, ptr %22, i64 72
  %95 = load ptr, ptr %93, align 8
  store ptr %95, ptr %94, align 8
  store ptr %94, ptr %93, align 8
  store ptr %21, ptr @CurrentMemoryContext, align 8
  br label %96

96:                                               ; preds = %.critedge, %15, %3, %85
  ret void
}